; Function Attrs: nounwind uwtable
define i32 @ffurl_read2(ptr noundef %0, ptr noundef %1, i32 noundef %2) #3 {
  %4 = getelementptr inbounds nuw i8, ptr %0, i64 32
  %5 = load i32, ptr %4, align 8, !tbaa !15
  %6 = and i32 %5, 1
  %.not = icmp eq i32 %6, 0
  br i1 %.not, label %retry_transfer_wrapper.exit, label %7

7:                                                ; preds = %3
  %8 = getelementptr inbounds nuw i8, ptr %0, i64 48
  %9 = getelementptr inbounds nuw i8, ptr %0, i64 56
  %10 = getelementptr inbounds nuw i8, ptr %0, i64 8
  %11 = getelementptr inbounds nuw i8, ptr %0, i64 64
  br label %.outer.split.i

.outer.split.i:                                   ; preds = %.outer.i, %7
  %12 = phi i32 [ %43, %.outer.i ], [ %2, %7 ]
  %13 = phi ptr [ %42, %.outer.i ], [ %1, %7 ]
  %.0.ph61.i = phi i64 [ %.2.i, %.outer.i ], [ 0, %7 ]
  %.037.ph60.i = phi i32 [ %.138.i, %.outer.i ], [ 5, %7 ]
  br label %14

14:                                               ; preds = %ff_check_interrupt.exit.thread.i, %.outer.split.i
  %15 = load ptr, ptr %8, align 8, !tbaa !19
  %.not6.i.i = icmp eq ptr %15, null
  br i1 %.not6.i.i, label %ff_check_interrupt.exit.thread.i, label %ff_check_interrupt.exit.i

ff_check_interrupt.exit.i:                        ; preds = %14
  %16 = load ptr, ptr %9, align 8, !tbaa !20
  %17 = tail call i32 %15(ptr noundef %16) #12
  %.not.i = icmp eq i32 %17, 0
  br i1 %.not.i, label %ff_check_interrupt.exit.thread.i, label %retry_transfer_wrapper.exit

ff_check_interrupt.exit.thread.i:                 ; preds = %ff_check_interrupt.exit.i, %14
  %18 = load ptr, ptr %10, align 8, !tbaa !21
  %19 = getelementptr inbounds nuw i8, ptr %18, i64 40
  %20 = load ptr, ptr %19, align 8, !tbaa !22
  %21 = tail call i32 %20(ptr noundef nonnull %0, ptr noundef %13, i32 noundef %12) #12
  %22 = icmp eq i32 %21, -4
  br i1 %22, label %14, label %.split.i, !llvm.loop !24

.split.i:                                         ; preds = %ff_check_interrupt.exit.thread.i
  %23 = load i32, ptr %4, align 8, !tbaa !15
  %24 = and i32 %23, 8
  %.not45.i = icmp eq i32 %24, 0
  br i1 %.not45.i, label %25, label %retry_transfer_wrapper.exit

25:                                               ; preds = %.split.i
  switch i32 %21, label %39 [
    i32 -11, label %26
    i32 -541478725, label %retry_transfer_wrapper.exit
  ]

26:                                               ; preds = %25
  %.not46.i = icmp eq i32 %.037.ph60.i, 0
  br i1 %.not46.i, label %29, label %27

27:                                               ; preds = %26
  %28 = add nsw i32 %.037.ph60.i, -1
  br label %.outer.i

29:                                               ; preds = %26
  %30 = load i64, ptr %11, align 8, !tbaa !26
  %.not47.i = icmp eq i64 %30, 0
  br i1 %.not47.i, label %37, label %31

31:                                               ; preds = %29
  %.not48.i = icmp eq i64 %.0.ph61.i, 0
  %32 = tail call i64 @av_gettime_relative() #12
  br i1 %.not48.i, label %37, label %33

33:                                               ; preds = %31
  %34 = load i64, ptr %11, align 8, !tbaa !26
  %35 = add nsw i64 %34, %.0.ph61.i
  %36 = icmp sgt i64 %32, %35
  br i1 %36, label %retry_transfer_wrapper.exit, label %37

37:                                               ; preds = %33, %31, %29
  %.1.i = phi i64 [ %.0.ph61.i, %33 ], [ %.0.ph61.i, %29 ], [ %32, %31 ]
  %38 = tail call i32 @av_usleep(i32 noundef 1000) #12
  br label %.outer.i

39:                                               ; preds = %25
  %40 = icmp slt i32 %21, 0
  br i1 %40, label %retry_transfer_wrapper.exit, label %.outer.i

.outer.i:                                         ; preds = %39, %37, %27
  %.041.i = phi i32 [ 0, %27 ], [ 0, %37 ], [ %21, %39 ]
  %.138.i = phi i32 [ %28, %27 ], [ 0, %37 ], [ %.037.ph60.i, %39 ]
  %.2.i = phi i64 [ %.0.ph61.i, %27 ], [ %.1.i, %37 ], [ %.0.ph61.i, %39 ]
  %.not49.i = icmp eq i32 %.041.i, 0
  %41 = zext nneg i32 %.041.i to i64
  %42 = getelementptr inbounds nuw i8, ptr %1, i64 %41
  %43 = sub nuw nsw i32 %2, %.041.i
  br i1 %.not49.i, label %.outer.split.i, label %retry_transfer_wrapper.exit, !llvm.loop !24

retry_transfer_wrapper.exit:                      ; preds = %.outer.i, %39, %33, %.split.i, %25, %ff_check_interrupt.exit.i, %3
  %.0 = phi i32 [ -5, %3 ], [ -1414092869, %ff_check_interrupt.exit.i ], [ %21, %39 ], [ -5, %33 ], [ %21, %.split.i ], [ %.041.i, %.outer.i ], [ %21, %25 ]
  ret i32 %.0
}